; Function Attrs: nounwind uwtable
define noalias noundef nonnull ptr @l_Lean_IR_ExplicitBoxing_getDecl(ptr noundef %0, ptr noundef %1, ptr noundef %2) local_unnamed_addr #0 {
  %4 = getelementptr inbounds nuw i8, ptr %1, i64 40
  %5 = load ptr, ptr %4, align 8, !tbaa !4
  %6 = ptrtoint ptr %5 to i64
  %7 = and i64 %6, 1
  %.not = icmp eq i64 %7, 0
  br i1 %.not, label %8, label %lean_inc.exit27

8:                                                ; preds = %3
  %.val.i = load i32, ptr %5, align 4, !tbaa !10
  %9 = icmp sgt i32 %.val.i, 0
  br i1 %9, label %10, label %12, !prof !13

10:                                               ; preds = %8
  %11 = add nuw i32 %.val.i, 1
  store i32 %11, ptr %5, align 4, !tbaa !10
  br label %lean_inc.exit27

12:                                               ; preds = %8
  %.not.i32 = icmp eq i32 %.val.i, 0
  br i1 %.not.i32, label %lean_inc.exit27, label %13

13:                                               ; preds = %12
  tail call void @lean_inc_ref_cold(ptr noundef nonnull %5) #6
  br label %lean_inc.exit27

lean_inc.exit27:                                  ; preds = %13, %12, %10, %3
  %14 = getelementptr inbounds nuw i8, ptr %1, i64 32
  %15 = load ptr, ptr %14, align 8, !tbaa !4
  %16 = ptrtoint ptr %15 to i64
  %17 = and i64 %16, 1
  %.not42 = icmp eq i64 %17, 0
  br i1 %.not42, label %18, label %lean_inc.exit26

18:                                               ; preds = %lean_inc.exit27
  %.val.i33 = load i32, ptr %15, align 4, !tbaa !10
  %19 = icmp sgt i32 %.val.i33, 0
  br i1 %19, label %20, label %22, !prof !13

20:                                               ; preds = %18
  %21 = add nuw i32 %.val.i33, 1
  store i32 %21, ptr %15, align 4, !tbaa !10
  br label %lean_inc.exit26

22:                                               ; preds = %18
  %.not.i34 = icmp eq i32 %.val.i33, 0
  br i1 %.not.i34, label %lean_inc.exit26, label %23

23:                                               ; preds = %22
  tail call void @lean_inc_ref_cold(ptr noundef nonnull %15) #6
  br label %lean_inc.exit26

lean_inc.exit26:                                  ; preds = %23, %22, %20, %lean_inc.exit27
  %24 = ptrtoint ptr %1 to i64
  %25 = and i64 %24, 1
  %.not43 = icmp eq i64 %25, 0
  br i1 %.not43, label %26, label %lean_dec.exit25

26:                                               ; preds = %lean_inc.exit26
  %27 = load i32, ptr %1, align 4, !tbaa !10
  %28 = icmp sgt i32 %27, 1
  br i1 %28, label %29, label %31, !prof !13

29:                                               ; preds = %26
  %30 = add nsw i32 %27, -1
  store i32 %30, ptr %1, align 4, !tbaa !10
  br label %lean_dec.exit25

31:                                               ; preds = %26
  %.not.i = icmp eq i32 %27, 0
  br i1 %.not.i, label %lean_dec.exit25, label %32

32:                                               ; preds = %31
  tail call void @lean_dec_ref_cold(ptr noundef nonnull %1) #6
  br label %lean_dec.exit25

lean_dec.exit25:                                  ; preds = %32, %31, %29, %lean_inc.exit26
  %33 = tail call ptr @l_Lean_IR_findEnvDecl_x27(ptr noundef %5, ptr noundef %0, ptr noundef %15) #6
  br i1 %.not42, label %34, label %lean_dec.exit24

34:                                               ; preds = %lean_dec.exit25
  %35 = load i32, ptr %15, align 4, !tbaa !10
  %36 = icmp sgt i32 %35, 1
  br i1 %36, label %37, label %39, !prof !13

37:                                               ; preds = %34
  %38 = add nsw i32 %35, -1
  store i32 %38, ptr %15, align 4, !tbaa !10
  br label %lean_dec.exit24

39:                                               ; preds = %34
  %.not.i28 = icmp eq i32 %35, 0
  br i1 %.not.i28, label %lean_dec.exit24, label %40

40:                                               ; preds = %39
  tail call void @lean_dec_ref_cold(ptr noundef nonnull %15) #6
  br label %lean_dec.exit24

lean_dec.exit24:                                  ; preds = %40, %39, %37, %lean_dec.exit25
  %41 = ptrtoint ptr %33 to i64
  %42 = and i64 %41, 1
  %.not.i36 = icmp eq i64 %42, 0
  br i1 %.not.i36, label %46, label %43

43:                                               ; preds = %lean_dec.exit24
  %44 = lshr i64 %41, 1
  %45 = trunc i64 %44 to i32
  br label %lean_obj_tag.exit

46:                                               ; preds = %lean_dec.exit24
  %47 = getelementptr i8, ptr %33, i64 4
  %.val.i37 = load i32, ptr %47, align 4
  %48 = lshr i32 %.val.i37, 24
  br label %lean_obj_tag.exit

lean_obj_tag.exit:                                ; preds = %43, %46
  %.0.i = phi i32 [ %45, %43 ], [ %48, %46 ]
  %49 = icmp eq i32 %.0.i, 0
  br i1 %49, label %50, label %55

50:                                               ; preds = %lean_obj_tag.exit
  %51 = load ptr, ptr @l_Lean_IR_ExplicitBoxing_getDecl___closed__3, align 8, !tbaa !4
  tail call void @lean_inc_heartbeat() #6
  %52 = tail call noalias ptr @mi_malloc_small(i64 noundef 24) #6
  %53 = icmp eq ptr %52, null
  br i1 %53, label %54, label %lean_alloc_ctor.exit

54:                                               ; preds = %50
  tail call void @lean_internal_panic_out_of_memory() #7
  unreachable

55:                                               ; preds = %lean_obj_tag.exit
  %56 = getelementptr inbounds nuw i8, ptr %33, i64 8
  %57 = load ptr, ptr %56, align 8, !tbaa !4
  %58 = ptrtoint ptr %57 to i64
  %59 = and i64 %58, 1
  %.not44 = icmp eq i64 %59, 0
  br i1 %.not44, label %60, label %lean_inc.exit

60:                                               ; preds = %55
  %.val.i38 = load i32, ptr %57, align 4, !tbaa !10
  %61 = icmp sgt i32 %.val.i38, 0
  br i1 %61, label %62, label %64, !prof !13

62:                                               ; preds = %60
  %63 = add nuw i32 %.val.i38, 1
  store i32 %63, ptr %57, align 4, !tbaa !10
  br label %lean_inc.exit

64:                                               ; preds = %60
  %.not.i39 = icmp eq i32 %.val.i38, 0
  br i1 %.not.i39, label %lean_inc.exit, label %65

65:                                               ; preds = %64
  tail call void @lean_inc_ref_cold(ptr noundef nonnull %57) #6
  br label %lean_inc.exit

lean_inc.exit:                                    ; preds = %65, %64, %62, %55
  br i1 %.not.i36, label %66, label %lean_dec.exit

66:                                               ; preds = %lean_inc.exit
  %67 = load i32, ptr %33, align 4, !tbaa !10
  %68 = icmp sgt i32 %67, 1
  br i1 %68, label %69, label %71, !prof !13

69:                                               ; preds = %66
  %70 = add nsw i32 %67, -1
  store i32 %70, ptr %33, align 4, !tbaa !10
  br label %lean_dec.exit

71:                                               ; preds = %66
  %.not.i30 = icmp eq i32 %67, 0
  br i1 %.not.i30, label %lean_dec.exit, label %72

72:                                               ; preds = %71
  tail call void @lean_dec_ref_cold(ptr noundef nonnull %33) #6
  br label %lean_dec.exit

lean_dec.exit:                                    ; preds = %72, %71, %69, %lean_inc.exit
  tail call void @lean_inc_heartbeat() #6
  %73 = tail call noalias ptr @mi_malloc_small(i64 noundef 24) #6
  %74 = icmp eq ptr %73, null
  br i1 %74, label %75, label %lean_alloc_ctor.exit

75:                                               ; preds = %lean_dec.exit
  tail call void @lean_internal_panic_out_of_memory() #7
  unreachable

lean_alloc_ctor.exit:                             ; preds = %lean_dec.exit, %50
  %.sink51 = phi ptr [ %52, %50 ], [ %73, %lean_dec.exit ]
  %.sink = phi ptr [ %51, %50 ], [ %57, %lean_dec.exit ]
  %76 = getelementptr inbounds nuw i8, ptr %.sink51, i64 4
  store i32 1, ptr %.sink51, align 4, !tbaa !10
  store i32 131096, ptr %76, align 4
  %77 = getelementptr inbounds nuw i8, ptr %.sink51, i64 8
  store ptr %.sink, ptr %77, align 8, !tbaa !4
  %78 = getelementptr inbounds nuw i8, ptr %.sink51, i64 16
  store ptr %2, ptr %78, align 8, !tbaa !4
  ret ptr %.sink51
}